target datalayout = "e-m:e-p270:32:32-p271:32:32-p272:64:64-i64:64-i128:128-f80:128-n8:16:32:64-S128"
target triple = "x86_64-pc-linux-gnu"

; Function Attrs: nounwind uwtable
define dso_local ptr @DeescapeQuotedString(ptr noundef %0) #0 {
  %2 = alloca ptr, align 8
  %3 = alloca ptr, align 8
  %4 = alloca i32, align 4
  %5 = alloca i32, align 4
  %6 = alloca i32, align 4
  %7 = alloca i32, align 4
  %8 = alloca i64, align 8
  store ptr %0, ptr %2, align 8
  call void @llvm.lifetime.start.p0(i64 8, ptr %3) #15
  call void @llvm.lifetime.start.p0(i64 4, ptr %4) #15
  call void @llvm.lifetime.start.p0(i64 4, ptr %5) #15
  call void @llvm.lifetime.start.p0(i64 4, ptr %6) #15
  %9 = load ptr, ptr %2, align 8
  %10 = call i64 @strlen(ptr noundef %9) #20
  %11 = trunc i64 %10 to i32
  store i32 %11, ptr %4, align 4
  %12 = load ptr, ptr %2, align 8
  %13 = getelementptr inbounds nuw i8, ptr %12, i32 1
  store ptr %13, ptr %2, align 8
  %14 = load i32, ptr %4, align 4
  %15 = add i32 %14, -1
  store i32 %15, ptr %4, align 4
  %16 = load i32, ptr %4, align 4
  %17 = sext i32 %16 to i64
  %18 = call ptr @palloc(i64 noundef %17)
  store ptr %18, ptr %3, align 8
  store i32 0, ptr %5, align 4
  store i32 0, ptr %6, align 4
  br label %19

19:                                               ; preds = %172, %1
  %20 = load i32, ptr %5, align 4
  %21 = load i32, ptr %4, align 4
  %22 = icmp slt i32 %20, %21
  br i1 %22, label %23, label %175

23:                                               ; preds = %19
  %24 = load ptr, ptr %2, align 8
  %25 = load i32, ptr %5, align 4
  %26 = sext i32 %25 to i64
  %27 = getelementptr inbounds i8, ptr %24, i64 %26
  %28 = load i8, ptr %27, align 1
  %29 = sext i8 %28 to i32
  %30 = icmp eq i32 %29, 92
  br i1 %30, label %31, label %130

31:                                               ; preds = %23
  %32 = load i32, ptr %5, align 4
  %33 = add i32 %32, 1
  store i32 %33, ptr %5, align 4
  %34 = load ptr, ptr %2, align 8
  %35 = load i32, ptr %5, align 4
  %36 = sext i32 %35 to i64
  %37 = getelementptr inbounds i8, ptr %34, i64 %36
  %38 = load i8, ptr %37, align 1
  %39 = sext i8 %38 to i32
  switch i32 %39, label %119 [
    i32 98, label %40
    i32 102, label %45
    i32 110, label %50
    i32 114, label %55
    i32 116, label %60
    i32 48, label %65
    i32 49, label %65
    i32 50, label %65
    i32 51, label %65
    i32 52, label %65
    i32 53, label %65
    i32 54, label %65
    i32 55, label %65
  ]

40:                                               ; preds = %31
  %41 = load ptr, ptr %3, align 8
  %42 = load i32, ptr %6, align 4
  %43 = sext i32 %42 to i64
  %44 = getelementptr inbounds i8, ptr %41, i64 %43
  store i8 8, ptr %44, align 1
  br label %129

45:                                               ; preds = %31
  %46 = load ptr, ptr %3, align 8
  %47 = load i32, ptr %6, align 4
  %48 = sext i32 %47 to i64
  %49 = getelementptr inbounds i8, ptr %46, i64 %48
  store i8 12, ptr %49, align 1
  br label %129

50:                                               ; preds = %31
  %51 = load ptr, ptr %3, align 8
  %52 = load i32, ptr %6, align 4
  %53 = sext i32 %52 to i64
  %54 = getelementptr inbounds i8, ptr %51, i64 %53
  store i8 10, ptr %54, align 1
  br label %129

55:                                               ; preds = %31
  %56 = load ptr, ptr %3, align 8
  %57 = load i32, ptr %6, align 4
  %58 = sext i32 %57 to i64
  %59 = getelementptr inbounds i8, ptr %56, i64 %58
  store i8 13, ptr %59, align 1
  br label %129

60:                                               ; preds = %31
  %61 = load ptr, ptr %3, align 8
  %62 = load i32, ptr %6, align 4
  %63 = sext i32 %62 to i64
  %64 = getelementptr inbounds i8, ptr %61, i64 %63
  store i8 9, ptr %64, align 1
  br label %129

65:                                               ; preds = %31, %31, %31, %31, %31, %31, %31, %31
  call void @llvm.lifetime.start.p0(i64 4, ptr %7) #15
  call void @llvm.lifetime.start.p0(i64 8, ptr %8) #15
  store i64 0, ptr %8, align 8
  store i32 0, ptr %7, align 4
  br label %66

66:                                               ; preds = %105, %65
  %67 = load ptr, ptr %2, align 8
  %68 = load i32, ptr %5, align 4
  %69 = load i32, ptr %7, align 4
  %70 = add i32 %68, %69
  %71 = sext i32 %70 to i64
  %72 = getelementptr inbounds i8, ptr %67, i64 %71
  %73 = load i8, ptr %72, align 1
  %74 = sext i8 %73 to i32
  %75 = icmp sge i32 %74, 48
  br i1 %75, label %76, label %89

76:                                               ; preds = %66
  %77 = load ptr, ptr %2, align 8
  %78 = load i32, ptr %5, align 4
  %79 = load i32, ptr %7, align 4
  %80 = add i32 %78, %79
  %81 = sext i32 %80 to i64
  %82 = getelementptr inbounds i8, ptr %77, i64 %81
  %83 = load i8, ptr %82, align 1
  %84 = sext i8 %83 to i32
  %85 = icmp sle i32 %84, 55
  br i1 %85, label %86, label %89

86:                                               ; preds = %76
  %87 = load i32, ptr %7, align 4
  %88 = icmp slt i32 %87, 3
  br label %89

89:                                               ; preds = %86, %76, %66
  %90 = phi i1 [ false, %76 ], [ false, %66 ], [ %88, %86 ]
  br i1 %90, label %91, label %108

91:                                               ; preds = %89
  %92 = load i64, ptr %8, align 8
  %93 = shl i64 %92, 3
  %94 = load ptr, ptr %2, align 8
  %95 = load i32, ptr %5, align 4
  %96 = load i32, ptr %7, align 4
  %97 = add i32 %95, %96
  %98 = sext i32 %97 to i64
  %99 = getelementptr inbounds i8, ptr %94, i64 %98
  %100 = load i8, ptr %99, align 1
  %101 = sext i8 %100 to i32
  %102 = sub i32 %101, 48
  %103 = sext i32 %102 to i64
  %104 = add i64 %93, %103
  store i64 %104, ptr %8, align 8
  br label %105

105:                                              ; preds = %91
  %106 = load i32, ptr %7, align 4
  %107 = add i32 %106, 1
  store i32 %107, ptr %7, align 4
  br label %66, !llvm.loop !20

108:                                              ; preds = %89
  %109 = load i32, ptr %7, align 4
  %110 = sub i32 %109, 1
  %111 = load i32, ptr %5, align 4
  %112 = add i32 %111, %110
  store i32 %112, ptr %5, align 4
  %113 = load i64, ptr %8, align 8
  %114 = trunc i64 %113 to i8
  %115 = load ptr, ptr %3, align 8
  %116 = load i32, ptr %6, align 4
  %117 = sext i32 %116 to i64
  %118 = getelementptr inbounds i8, ptr %115, i64 %117
  store i8 %114, ptr %118, align 1
  call void @llvm.lifetime.end.p0(i64 8, ptr %8) #15
  call void @llvm.lifetime.end.p0(i64 4, ptr %7) #15
  br label %129

119:                                              ; preds = %31
  %120 = load ptr, ptr %2, align 8
  %121 = load i32, ptr %5, align 4
  %122 = sext i32 %121 to i64
  %123 = getelementptr inbounds i8, ptr %120, i64 %122
  %124 = load i8, ptr %123, align 1
  %125 = load ptr, ptr %3, align 8
  %126 = load i32, ptr %6, align 4
  %127 = sext i32 %126 to i64
  %128 = getelementptr inbounds i8, ptr %125, i64 %127
  store i8 %124, ptr %128, align 1
  br label %129

129:                                              ; preds = %119, %108, %60, %55, %50, %45, %40
  br label %169

130:                                              ; preds = %23
  %131 = load ptr, ptr %2, align 8
  %132 = load i32, ptr %5, align 4
  %133 = sext i32 %132 to i64
  %134 = getelementptr inbounds i8, ptr %131, i64 %133
  %135 = load i8, ptr %134, align 1
  %136 = sext i8 %135 to i32
  %137 = icmp eq i32 %136, 39
  br i1 %137, label %138, label %158

138:                                              ; preds = %130
  %139 = load ptr, ptr %2, align 8
  %140 = load i32, ptr %5, align 4
  %141 = add i32 %140, 1
  %142 = sext i32 %141 to i64
  %143 = getelementptr inbounds i8, ptr %139, i64 %142
  %144 = load i8, ptr %143, align 1
  %145 = sext i8 %144 to i32
  %146 = icmp eq i32 %145, 39
  br i1 %146, label %147, label %158

147:                                              ; preds = %138
  %148 = load ptr, ptr %2, align 8
  %149 = load i32, ptr %5, align 4
  %150 = add i32 %149, 1
  store i32 %150, ptr %5, align 4
  %151 = sext i32 %150 to i64
  %152 = getelementptr inbounds i8, ptr %148, i64 %151
  %153 = load i8, ptr %152, align 1
  %154 = load ptr, ptr %3, align 8
  %155 = load i32, ptr %6, align 4
  %156 = sext i32 %155 to i64
  %157 = getelementptr inbounds i8, ptr %154, i64 %156
  store i8 %153, ptr %157, align 1
  br label %168

158:                                              ; preds = %138, %130
  %159 = load ptr, ptr %2, align 8
  %160 = load i32, ptr %5, align 4
  %161 = sext i32 %160 to i64
  %162 = getelementptr inbounds i8, ptr %159, i64 %161
  %163 = load i8, ptr %162, align 1
  %164 = load ptr, ptr %3, align 8
  %165 = load i32, ptr %6, align 4
  %166 = sext i32 %165 to i64
  %167 = getelementptr inbounds i8, ptr %164, i64 %166
  store i8 %163, ptr %167, align 1
  br label %168

168:                                              ; preds = %158, %147
  br label %169

169:                                              ; preds = %168, %129
  %170 = load i32, ptr %6, align 4
  %171 = add i32 %170, 1
  store i32 %171, ptr %6, align 4
  br label %172

172:                                              ; preds = %169
  %173 = load i32, ptr %5, align 4
  %174 = add i32 %173, 1
  store i32 %174, ptr %5, align 4
  br label %19, !llvm.loop !21

175:                                              ; preds = %19
  %176 = load ptr, ptr %3, align 8
  %177 = load i32, ptr %6, align 4
  %178 = add i32 %177, -1
  store i32 %178, ptr %6, align 4
  %179 = sext i32 %178 to i64
  %180 = getelementptr inbounds i8, ptr %176, i64 %179
  store i8 0, ptr %180, align 1
  %181 = load ptr, ptr %3, align 8
  call void @llvm.lifetime.end.p0(i64 4, ptr %6) #15
  call void @llvm.lifetime.end.p0(i64 4, ptr %5) #15
  call void @llvm.lifetime.end.p0(i64 4, ptr %4) #15
  call void @llvm.lifetime.end.p0(i64 8, ptr %3) #15
  ret ptr %181
}