; Function Attrs: nounwind uwtable
define dso_local ptr @DeescapeQuotedString(ptr noundef readonly captures(none) %0) local_unnamed_addr #0 {
  %2 = tail call i64 @strlen(ptr noundef nonnull dereferenceable(1) %0) #30
  %3 = trunc i64 %2 to i32
  %4 = getelementptr inbounds nuw i8, ptr %0, i64 1
  %5 = add i32 %3, -1
  %6 = sext i32 %5 to i64
  %7 = tail call ptr @palloc(i64 noundef %6) #28
  %8 = icmp sgt i32 %5, 0
  br i1 %8, label %.lr.ph72, label %._crit_edge

.lr.ph72:                                         ; preds = %1, %44
  %.06071 = phi i32 [ %47, %44 ], [ 0, %1 ]
  %.06170 = phi i32 [ %48, %44 ], [ 0, %1 ]
  %9 = sext i32 %.06170 to i64
  %10 = getelementptr inbounds i8, ptr %4, i64 %9
  %11 = load i8, ptr %10, align 1
  switch i8 %11, label %43 [
    i8 92, label %12
    i8 39, label %37
  ]

12:                                               ; preds = %.lr.ph72
  %13 = add nsw i32 %.06170, 1
  %14 = sext i32 %13 to i64
  %15 = getelementptr inbounds i8, ptr %4, i64 %14
  %16 = load i8, ptr %15, align 1
  switch i8 %16, label %36 [
    i8 98, label %44
    i8 102, label %17
    i8 110, label %18
    i8 114, label %19
    i8 116, label %20
    i8 48, label %.lr.ph.preheader
    i8 49, label %.lr.ph.preheader
    i8 50, label %.lr.ph.preheader
    i8 51, label %.lr.ph.preheader
    i8 52, label %.lr.ph.preheader
    i8 53, label %.lr.ph.preheader
    i8 54, label %.lr.ph.preheader
    i8 55, label %.lr.ph.preheader
  ]

.lr.ph.preheader:                                 ; preds = %12, %12, %12, %12, %12, %12, %12, %12
  br label %.lr.ph

17:                                               ; preds = %12
  br label %44

18:                                               ; preds = %12
  br label %44

19:                                               ; preds = %12
  br label %44

20:                                               ; preds = %12
  br label %44

.lr.ph:                                           ; preds = %.lr.ph.preheader, %24
  %indvars.iv = phi i64 [ %indvars.iv.next, %24 ], [ 0, %.lr.ph.preheader ]
  %21 = phi i8 [ %32, %24 ], [ %16, %.lr.ph.preheader ]
  %.065 = phi i8 [ %26, %24 ], [ 0, %.lr.ph.preheader ]
  %.05964 = phi i32 [ %27, %24 ], [ 0, %.lr.ph.preheader ]
  %22 = icmp samesign ult i8 %21, 56
  %23 = icmp samesign ult i64 %indvars.iv, 3
  %or.cond = select i1 %22, i1 %23, i1 false
  br i1 %or.cond, label %24, label %.critedge.split.loop.exit74

24:                                               ; preds = %.lr.ph
  %25 = shl i8 %.065, 3
  %narrow = add nsw i8 %21, -48
  %26 = add nuw i8 %narrow, %25
  %indvars.iv.next = add nuw nsw i64 %indvars.iv, 1
  %27 = add nuw nsw i32 %.05964, 1
  %28 = trunc nuw nsw i64 %indvars.iv.next to i32
  %29 = add i32 %13, %28
  %30 = sext i32 %29 to i64
  %31 = getelementptr inbounds i8, ptr %4, i64 %30
  %32 = load i8, ptr %31, align 1
  %33 = icmp sgt i8 %32, 47
  br i1 %33, label %.lr.ph, label %.critedge, !llvm.loop !19

.critedge.split.loop.exit74:                      ; preds = %.lr.ph
  %34 = trunc nuw nsw i64 %indvars.iv to i32
  br label %.critedge

.critedge:                                        ; preds = %24, %.critedge.split.loop.exit74
  %.059.lcssa.ph = phi i32 [ %34, %.critedge.split.loop.exit74 ], [ %27, %24 ]
  %.0.lcssa.ph = phi i8 [ %.065, %.critedge.split.loop.exit74 ], [ %26, %24 ]
  %35 = add i32 %.059.lcssa.ph, %.06170
  br label %44

36:                                               ; preds = %12
  br label %44

37:                                               ; preds = %.lr.ph72
  %38 = add nsw i32 %.06170, 1
  %39 = sext i32 %38 to i64
  %40 = getelementptr inbounds i8, ptr %4, i64 %39
  %41 = load i8, ptr %40, align 1
  %42 = icmp eq i8 %41, 39
  br i1 %42, label %44, label %43

43:                                               ; preds = %.lr.ph72, %37
  br label %44

44:                                               ; preds = %37, %12, %43, %17, %18, %19, %20, %.critedge, %36
  %.sink = phi i8 [ %11, %43 ], [ 12, %17 ], [ 10, %18 ], [ 13, %19 ], [ 9, %20 ], [ %.0.lcssa.ph, %.critedge ], [ %16, %36 ], [ 8, %12 ], [ 39, %37 ]
  %.1 = phi i32 [ %.06170, %43 ], [ %13, %17 ], [ %13, %18 ], [ %13, %19 ], [ %13, %20 ], [ %35, %.critedge ], [ %13, %36 ], [ %13, %12 ], [ %38, %37 ]
  %45 = sext i32 %.06071 to i64
  %46 = getelementptr inbounds i8, ptr %7, i64 %45
  store i8 %.sink, ptr %46, align 1
  %47 = add i32 %.06071, 1
  %48 = add i32 %.1, 1
  %49 = icmp slt i32 %48, %5
  br i1 %49, label %.lr.ph72, label %._crit_edge.loopexit, !llvm.loop !20

._crit_edge.loopexit:                             ; preds = %44
  %50 = sext i32 %.06071 to i64
  br label %._crit_edge

._crit_edge:                                      ; preds = %._crit_edge.loopexit, %1
  %.060.lcssa = phi i64 [ -1, %1 ], [ %50, %._crit_edge.loopexit ]
  %51 = getelementptr inbounds i8, ptr %7, i64 %.060.lcssa
  store i8 0, ptr %51, align 1
  ret ptr %7
}